target datalayout = "e-m:e-p270:32:32-p271:32:32-p272:64:64-i64:64-i128:128-f80:128-n8:16:32:64-S128"
target triple = "x86_64-pc-linux-gnu"

%"class.icu_77::BytesTrieBuilder" = type { %"class.icu_77::StringTrieBuilder", ptr, ptr, i32, i32, ptr, i32, i32 }
%"class.icu_77::StringTrieBuilder" = type { %"class.icu_77::UObject", ptr }
%"class.icu_77::UObject" = type { ptr }

; Function Attrs: mustprogress uwtable
define noundef signext i8 @_ZN6icu_7716BytesTrieBuilder14ensureCapacityEi(ptr noundef nonnull align 8 dereferenceable(56) %0, i32 noundef %1) #1 align 2 {
  %3 = alloca i8, align 1
  %4 = alloca ptr, align 8
  %5 = alloca i32, align 4
  %6 = alloca i32, align 4
  %7 = alloca ptr, align 8
  %8 = alloca i32, align 4
  store ptr %0, ptr %4, align 8, !tbaa !37
  store i32 %1, ptr %5, align 4, !tbaa !14
  %9 = load ptr, ptr %4, align 8
  %10 = getelementptr inbounds nuw %"class.icu_77::BytesTrieBuilder", ptr %9, i32 0, i32 5
  %11 = load ptr, ptr %10, align 8, !tbaa !49
  %12 = icmp eq ptr %11, null
  br i1 %12, label %13, label %14

13:                                               ; preds = %2
  store i8 0, ptr %3, align 1
  br label %73

14:                                               ; preds = %2
  %15 = load i32, ptr %5, align 4, !tbaa !14
  %16 = getelementptr inbounds nuw %"class.icu_77::BytesTrieBuilder", ptr %9, i32 0, i32 6
  %17 = load i32, ptr %16, align 8, !tbaa !50
  %18 = icmp sgt i32 %15, %17
  br i1 %18, label %19, label %72

19:                                               ; preds = %14
  call void @llvm.lifetime.start.p0(i64 4, ptr %6) #12
  %20 = getelementptr inbounds nuw %"class.icu_77::BytesTrieBuilder", ptr %9, i32 0, i32 6
  %21 = load i32, ptr %20, align 8, !tbaa !50
  store i32 %21, ptr %6, align 4, !tbaa !14
  br label %22

22:                                               ; preds = %25, %19
  %23 = load i32, ptr %6, align 4, !tbaa !14
  %24 = mul nsw i32 %23, 2
  store i32 %24, ptr %6, align 4, !tbaa !14
  br label %25

25:                                               ; preds = %22
  %26 = load i32, ptr %6, align 4, !tbaa !14
  %27 = load i32, ptr %5, align 4, !tbaa !14
  %28 = icmp sle i32 %26, %27
  br i1 %28, label %22, label %29, !llvm.loop !89

29:                                               ; preds = %25
  call void @llvm.lifetime.start.p0(i64 8, ptr %7) #12
  %30 = load i32, ptr %6, align 4, !tbaa !14
  %31 = sext i32 %30 to i64
  %32 = call noalias ptr @uprv_malloc_77(i64 noundef %31) #13
  store ptr %32, ptr %7, align 8, !tbaa !17
  %33 = load ptr, ptr %7, align 8, !tbaa !17
  %34 = icmp eq ptr %33, null
  br i1 %34, label %35, label %40

35:                                               ; preds = %29
  %36 = getelementptr inbounds nuw %"class.icu_77::BytesTrieBuilder", ptr %9, i32 0, i32 5
  %37 = load ptr, ptr %36, align 8, !tbaa !49
  call void @uprv_free_77(ptr noundef %37)
  %38 = getelementptr inbounds nuw %"class.icu_77::BytesTrieBuilder", ptr %9, i32 0, i32 5
  store ptr null, ptr %38, align 8, !tbaa !49
  %39 = getelementptr inbounds nuw %"class.icu_77::BytesTrieBuilder", ptr %9, i32 0, i32 6
  store i32 0, ptr %39, align 8, !tbaa !50
  store i8 0, ptr %3, align 1
  store i32 1, ptr %8, align 4
  br label %69

40:                                               ; preds = %29
  br label %41

41:                                               ; preds = %40
  %42 = load ptr, ptr %7, align 8, !tbaa !17
  %43 = load i32, ptr %6, align 4, !tbaa !14
  %44 = getelementptr inbounds nuw %"class.icu_77::BytesTrieBuilder", ptr %9, i32 0, i32 7
  %45 = load i32, ptr %44, align 4, !tbaa !51
  %46 = sub nsw i32 %43, %45
  %47 = sext i32 %46 to i64
  %48 = getelementptr inbounds i8, ptr %42, i64 %47
  %49 = getelementptr inbounds nuw %"class.icu_77::BytesTrieBuilder", ptr %9, i32 0, i32 5
  %50 = load ptr, ptr %49, align 8, !tbaa !49
  %51 = getelementptr inbounds nuw %"class.icu_77::BytesTrieBuilder", ptr %9, i32 0, i32 6
  %52 = load i32, ptr %51, align 8, !tbaa !50
  %53 = getelementptr inbounds nuw %"class.icu_77::BytesTrieBuilder", ptr %9, i32 0, i32 7
  %54 = load i32, ptr %53, align 4, !tbaa !51
  %55 = sub nsw i32 %52, %54
  %56 = sext i32 %55 to i64
  %57 = getelementptr inbounds i8, ptr %50, i64 %56
  %58 = getelementptr inbounds nuw %"class.icu_77::BytesTrieBuilder", ptr %9, i32 0, i32 7
  %59 = load i32, ptr %58, align 4, !tbaa !51
  %60 = sext i32 %59 to i64
  call void @llvm.memcpy.p0.p0.i64(ptr align 1 %48, ptr align 1 %57, i64 %60, i1 false)
  br label %61

61:                                               ; preds = %41
  br label %62

62:                                               ; preds = %61
  %63 = getelementptr inbounds nuw %"class.icu_77::BytesTrieBuilder", ptr %9, i32 0, i32 5
  %64 = load ptr, ptr %63, align 8, !tbaa !49
  call void @uprv_free_77(ptr noundef %64)
  %65 = load ptr, ptr %7, align 8, !tbaa !17
  %66 = getelementptr inbounds nuw %"class.icu_77::BytesTrieBuilder", ptr %9, i32 0, i32 5
  store ptr %65, ptr %66, align 8, !tbaa !49
  %67 = load i32, ptr %6, align 4, !tbaa !14
  %68 = getelementptr inbounds nuw %"class.icu_77::BytesTrieBuilder", ptr %9, i32 0, i32 6
  store i32 %67, ptr %68, align 8, !tbaa !50
  store i32 0, ptr %8, align 4
  br label %69

69:                                               ; preds = %62, %35
  call void @llvm.lifetime.end.p0(i64 8, ptr %7) #12
  call void @llvm.lifetime.end.p0(i64 4, ptr %6) #12
  %70 = load i32, ptr %8, align 4
  switch i32 %70, label %75 [
    i32 0, label %71
    i32 1, label %73
  ]

71:                                               ; preds = %69
  br label %72

72:                                               ; preds = %71, %14
  store i8 1, ptr %3, align 1
  br label %73

73:                                               ; preds = %72, %69, %13
  %74 = load i8, ptr %3, align 1
  ret i8 %74

75:                                               ; preds = %69
  unreachable
}

; Function Attrs: mustprogress uwtable
define noundef i32 @_ZN6icu_7716BytesTrieBuilder5writeEi(ptr noundef nonnull align 8 dereferenceable(56) %0, i32 noundef %1) unnamed_addr #1 align 2 {
  %3 = alloca ptr, align 8
  %4 = alloca i32, align 4
  %5 = alloca i32, align 4
  store ptr %0, ptr %3, align 8, !tbaa !37
  store i32 %1, ptr %4, align 4, !tbaa !14
  %6 = load ptr, ptr %3, align 8
  call void @llvm.lifetime.start.p0(i64 4, ptr %5) #12
  %7 = getelementptr inbounds nuw %"class.icu_77::BytesTrieBuilder", ptr %6, i32 0, i32 7
  %8 = load i32, ptr %7, align 4, !tbaa !51
  %9 = add nsw i32 %8, 1
  store i32 %9, ptr %5, align 4, !tbaa !14
  %10 = load i32, ptr %5, align 4, !tbaa !14
  %11 = call noundef signext i8 @_ZN6icu_7716BytesTrieBuilder14ensureCapacityEi(ptr noundef nonnull align 8 dereferenceable(56) %6, i32 noundef %10)
  %12 = icmp ne i8 %11, 0
  br i1 %12, label %13, label %27

13:                                               ; preds = %2
  %14 = load i32, ptr %5, align 4, !tbaa !14
  %15 = getelementptr inbounds nuw %"class.icu_77::BytesTrieBuilder", ptr %6, i32 0, i32 7
  store i32 %14, ptr %15, align 4, !tbaa !51
  %16 = load i32, ptr %4, align 4, !tbaa !14
  %17 = trunc i32 %16 to i8
  %18 = getelementptr inbounds nuw %"class.icu_77::BytesTrieBuilder", ptr %6, i32 0, i32 5
  %19 = load ptr, ptr %18, align 8, !tbaa !49
  %20 = getelementptr inbounds nuw %"class.icu_77::BytesTrieBuilder", ptr %6, i32 0, i32 6
  %21 = load i32, ptr %20, align 8, !tbaa !50
  %22 = getelementptr inbounds nuw %"class.icu_77::BytesTrieBuilder", ptr %6, i32 0, i32 7
  %23 = load i32, ptr %22, align 4, !tbaa !51
  %24 = sub nsw i32 %21, %23
  %25 = sext i32 %24 to i64
  %26 = getelementptr inbounds i8, ptr %19, i64 %25
  store i8 %17, ptr %26, align 1, !tbaa !52
  br label %27

27:                                               ; preds = %13, %2
  %28 = getelementptr inbounds nuw %"class.icu_77::BytesTrieBuilder", ptr %6, i32 0, i32 7
  %29 = load i32, ptr %28, align 4, !tbaa !51
  call void @llvm.lifetime.end.p0(i64 4, ptr %5) #12
  ret i32 %29
}