; Function Attrs: mustprogress uwtable
define noundef i32 @_ZN6icu_7716BytesTrieBuilder5writeEi(ptr noundef nonnull align 8 captures(none) dereferenceable(56) %0, i32 noundef %1) unnamed_addr #1 align 2 {
  %3 = getelementptr inbounds nuw i8, ptr %0, i64 52
  %4 = load i32, ptr %3, align 4, !tbaa !32
  %5 = add nsw i32 %4, 1
  %6 = getelementptr inbounds nuw i8, ptr %0, i64 40
  %7 = load ptr, ptr %6, align 8, !tbaa !31
  %8 = icmp eq ptr %7, null
  br i1 %8, label %_ZN6icu_7716BytesTrieBuilder14ensureCapacityEi.exit.thread, label %9

9:                                                ; preds = %2
  %10 = getelementptr inbounds nuw i8, ptr %0, i64 48
  %11 = load i32, ptr %10, align 8, !tbaa !35
  %.not8 = icmp slt i32 %4, %11
  br i1 %.not8, label %_ZN6icu_7716BytesTrieBuilder14ensureCapacityEi.exit.thread5, label %.preheader.i

.preheader.i:                                     ; preds = %9, %.preheader.i
  %.013.i = phi i32 [ %12, %.preheader.i ], [ %11, %9 ]
  %12 = shl nsw i32 %.013.i, 1
  %.not.i = icmp sgt i32 %12, %5
  br i1 %.not.i, label %13, label %.preheader.i, !llvm.loop !60

13:                                               ; preds = %.preheader.i
  %14 = sext i32 %12 to i64
  %15 = tail call noalias ptr @uprv_malloc_77(i64 noundef %14) #20
  %16 = icmp eq ptr %15, null
  br i1 %16, label %_ZN6icu_7716BytesTrieBuilder14ensureCapacityEi.exit.thread9, label %_ZN6icu_7716BytesTrieBuilder14ensureCapacityEi.exit

_ZN6icu_7716BytesTrieBuilder14ensureCapacityEi.exit.thread9: ; preds = %13
  %17 = load ptr, ptr %6, align 8, !tbaa !31
  tail call void @uprv_free_77(ptr noundef %17)
  store ptr %15, ptr %6, align 8, !tbaa !31
  store i32 0, ptr %10, align 8, !tbaa !35
  br label %_ZN6icu_7716BytesTrieBuilder14ensureCapacityEi.exit.thread

_ZN6icu_7716BytesTrieBuilder14ensureCapacityEi.exit: ; preds = %13
  %18 = load i32, ptr %3, align 4, !tbaa !32
  %19 = sub nsw i32 %12, %18
  %20 = sext i32 %19 to i64
  %21 = getelementptr inbounds i8, ptr %15, i64 %20
  %22 = load ptr, ptr %6, align 8, !tbaa !31
  %23 = load i32, ptr %10, align 8, !tbaa !35
  %24 = sub nsw i32 %23, %18
  %25 = sext i32 %24 to i64
  %26 = getelementptr inbounds i8, ptr %22, i64 %25
  %27 = sext i32 %18 to i64
  tail call void @llvm.memcpy.p0.p0.i64(ptr nonnull align 1 %21, ptr align 1 %26, i64 %27, i1 false)
  tail call void @uprv_free_77(ptr noundef %22)
  store ptr %15, ptr %6, align 8, !tbaa !31
  store i32 %12, ptr %10, align 8, !tbaa !35
  br label %_ZN6icu_7716BytesTrieBuilder14ensureCapacityEi.exit.thread5

_ZN6icu_7716BytesTrieBuilder14ensureCapacityEi.exit.thread5: ; preds = %_ZN6icu_7716BytesTrieBuilder14ensureCapacityEi.exit, %9
  %28 = phi i32 [ %11, %9 ], [ %12, %_ZN6icu_7716BytesTrieBuilder14ensureCapacityEi.exit ]
  %29 = phi ptr [ %7, %9 ], [ %15, %_ZN6icu_7716BytesTrieBuilder14ensureCapacityEi.exit ]
  store i32 %5, ptr %3, align 4, !tbaa !32
  %30 = trunc i32 %1 to i8
  %31 = sub nsw i32 %28, %5
  %32 = sext i32 %31 to i64
  %33 = getelementptr inbounds i8, ptr %29, i64 %32
  store i8 %30, ptr %33, align 1, !tbaa !20
  br label %_ZN6icu_7716BytesTrieBuilder14ensureCapacityEi.exit.thread

_ZN6icu_7716BytesTrieBuilder14ensureCapacityEi.exit.thread: ; preds = %_ZN6icu_7716BytesTrieBuilder14ensureCapacityEi.exit.thread9, %2, %_ZN6icu_7716BytesTrieBuilder14ensureCapacityEi.exit.thread5
  %34 = load i32, ptr %3, align 4, !tbaa !32
  ret i32 %34
}